target datalayout = "e-m:e-p270:32:32-p271:32:32-p272:64:64-i64:64-i128:128-f80:128-n8:16:32:64-S128"
target triple = "x86_64-pc-linux-gnu"

%struct._dcerpc_info = type { ptr, i32, i64, i8, i32, i32, i32, i32, i32, i32, i32, i32, i32, i32, ptr, ptr, ptr }

@hf_lsarpc_sec_desc_buf_len = internal global i32 -1, align 4
@.str.868 = private unnamed_addr constant [30 x i8] c"LSA SECURITY DESCRIPTOR data:\00", align 1

; Function Attrs: nounwind uwtable
define internal i32 @cnf_dissect_sec_desc_buf(ptr noundef %0, i32 noundef %1, ptr noundef %2, ptr noundef %3, ptr noundef %4, ptr noundef %5) #0 {
  %7 = alloca i32, align 4
  %8 = alloca ptr, align 8
  %9 = alloca i32, align 4
  %10 = alloca ptr, align 8
  %11 = alloca ptr, align 8
  %12 = alloca ptr, align 8
  %13 = alloca ptr, align 8
  %14 = alloca i32, align 4
  store ptr %0, ptr %8, align 8
  store i32 %1, ptr %9, align 4
  store ptr %2, ptr %10, align 8
  store ptr %3, ptr %11, align 8
  store ptr %4, ptr %12, align 8
  store ptr %5, ptr %13, align 8
  %15 = load ptr, ptr %12, align 8
  %16 = getelementptr inbounds %struct._dcerpc_info, ptr %15, i32 0, i32 4
  %17 = load i32, ptr %16, align 4
  %18 = icmp ne i32 %17, 0
  br i1 %18, label %19, label %21

19:                                               ; preds = %6
  %20 = load i32, ptr %9, align 4
  store i32 %20, ptr %7, align 4
  br label %38

21:                                               ; preds = %6
  %22 = load ptr, ptr %8, align 8
  %23 = load i32, ptr %9, align 4
  %24 = load ptr, ptr %10, align 8
  %25 = load ptr, ptr %11, align 8
  %26 = load ptr, ptr %12, align 8
  %27 = load ptr, ptr %13, align 8
  %28 = load i32, ptr @hf_lsarpc_sec_desc_buf_len, align 4
  %29 = call i32 @dissect_ndr_uint32(ptr noundef %22, i32 noundef %23, ptr noundef %24, ptr noundef %25, ptr noundef %26, ptr noundef %27, i32 noundef %28, ptr noundef %14)
  store i32 %29, ptr %9, align 4
  %30 = load ptr, ptr %8, align 8
  %31 = load i32, ptr %9, align 4
  %32 = load ptr, ptr %10, align 8
  %33 = load ptr, ptr %11, align 8
  %34 = load ptr, ptr %12, align 8
  %35 = load ptr, ptr %13, align 8
  %36 = call i32 @dissect_ndr_pointer(ptr noundef %30, i32 noundef %31, ptr noundef %32, ptr noundef %33, ptr noundef %34, ptr noundef %35, ptr noundef @cnf_dissect_sec_desc_buf_, i32 noundef 2, ptr noundef @.str.868, i32 noundef -1)
  store i32 %36, ptr %9, align 4
  %37 = load i32, ptr %9, align 4
  store i32 %37, ptr %7, align 4
  br label %38

38:                                               ; preds = %21, %19
  %39 = load i32, ptr %7, align 4
  ret i32 %39
}

; Function Attrs: nounwind uwtable
define internal i32 @lsarpc_dissect_element_lsa_QuerySecurity_sdbuf__(ptr noundef %0, i32 noundef %1, ptr noundef %2, ptr noundef %3, ptr noundef %4, ptr noundef %5) #0 {
  %7 = alloca ptr, align 8
  %8 = alloca i32, align 4
  %9 = alloca ptr, align 8
  %10 = alloca ptr, align 8
  %11 = alloca ptr, align 8
  %12 = alloca ptr, align 8
  store ptr %0, ptr %7, align 8
  store i32 %1, ptr %8, align 4
  store ptr %2, ptr %9, align 8
  store ptr %3, ptr %10, align 8
  store ptr %4, ptr %11, align 8
  store ptr %5, ptr %12, align 8
  %13 = load ptr, ptr %7, align 8
  %14 = load i32, ptr %8, align 4
  %15 = load ptr, ptr %9, align 8
  %16 = load ptr, ptr %10, align 8
  %17 = load ptr, ptr %11, align 8
  %18 = load ptr, ptr %12, align 8
  %19 = call i32 @cnf_dissect_sec_desc_buf(ptr noundef %13, i32 noundef %14, ptr noundef %15, ptr noundef %16, ptr noundef %17, ptr noundef %18)
  store i32 %19, ptr %8, align 4
  %20 = load i32, ptr %8, align 4
  ret i32 %20
}